target datalayout = "e-m:e-p270:32:32-p271:32:32-p272:64:64-i64:64-i128:128-f80:128-n8:16:32:64-S128"
target triple = "x86_64-unknown-linux-gnu"

%struct.b2ContactRegister = type { ptr, ptr, i8 }
%class.b2Fixture = type { float, ptr, ptr, ptr, float, float, float, ptr, i32, %struct.b2Filter, i8, %struct.b2FixtureUserData }
%struct.b2Filter = type { i16, i16, i16 }
%struct.b2FixtureUserData = type { i64 }
%class.b2Contact = type { ptr, i32, ptr, ptr, %struct.b2ContactEdge, %struct.b2ContactEdge, ptr, ptr, i32, i32, %struct.b2Manifold, i32, float, float, float, float, float }
%struct.b2ContactEdge = type { ptr, ptr, ptr, ptr }
%struct.b2Manifold = type { [2 x %struct.b2ManifoldPoint], %struct.b2Vec2, %struct.b2Vec2, i32, i32 }
%struct.b2ManifoldPoint = type { %struct.b2Vec2, float, float, %union.b2ContactID }
%union.b2ContactID = type { i32 }
%struct.b2Vec2 = type { float, float }
%class.b2Body = type { i32, i16, i32, %struct.b2Transform, %struct.b2Sweep, %struct.b2Vec2, float, %struct.b2Vec2, float, ptr, ptr, ptr, ptr, i32, ptr, ptr, float, float, float, float, float, float, float, float, %struct.b2BodyUserData }
%struct.b2Transform = type { %struct.b2Vec2, %struct.b2Rot }
%struct.b2Rot = type { float, float }
%struct.b2Sweep = type { %struct.b2Vec2, %struct.b2Vec2, %struct.b2Vec2, float, float, float }
%struct.b2BodyUserData = type { i64 }
%class.b2Shape = type { ptr, i32, float }

@_ZN9b2Contact11s_registersE = global [4 x [4 x %struct.b2ContactRegister]] zeroinitializer, align 16

; Function Attrs: mustprogress nounwind uwtable
define linkonce_odr hidden noundef i32 @_ZNK7b2Shape7GetTypeEv(ptr noundef nonnull align 8 dereferenceable(16) %this) #1 comdat align 2 {
entry:
  %this.addr = alloca ptr, align 8
  store ptr %this, ptr %this.addr, align 8
  %this1 = load ptr, ptr %this.addr, align 8
  %m_type = getelementptr inbounds %class.b2Shape, ptr %this1, i32 0, i32 1
  %0 = load i32, ptr %m_type, align 8
  ret i32 %0
}

; Function Attrs: mustprogress nounwind uwtable
define linkonce_odr hidden void @_ZN6b2Vec27SetZeroEv(ptr noundef nonnull align 4 dereferenceable(8) %this) #1 comdat align 2 {
entry:
  %this.addr = alloca ptr, align 8
  store ptr %this, ptr %this.addr, align 8
  %this1 = load ptr, ptr %this.addr, align 8
  %x = getelementptr inbounds %struct.b2Vec2, ptr %this1, i32 0, i32 0
  store float 0.000000e+00, ptr %x, align 4
  %y = getelementptr inbounds %struct.b2Vec2, ptr %this1, i32 0, i32 1
  store float 0.000000e+00, ptr %y, align 4
  ret void
}

; Function Attrs: mustprogress uwtable
define linkonce_odr hidden noundef i32 @_ZNK9b2Fixture7GetTypeEv(ptr noundef nonnull align 8 dereferenceable(80) %this) #0 comdat align 2 {
entry:
  %this.addr = alloca ptr, align 8
  store ptr %this, ptr %this.addr, align 8
  %this1 = load ptr, ptr %this.addr, align 8
  %m_shape = getelementptr inbounds %class.b2Fixture, ptr %this1, i32 0, i32 3
  %0 = load ptr, ptr %m_shape, align 8
  %call = call noundef i32 @_ZNK7b2Shape7GetTypeEv(ptr noundef nonnull align 8 dereferenceable(16) %0)
  ret i32 %call
}

; Function Attrs: mustprogress uwtable
define linkonce_odr hidden void @_ZN6b2Body8SetAwakeEb(ptr noundef nonnull align 8 dereferenceable(184) %this, i1 noundef zeroext %flag) #0 comdat align 2 {
entry:
  %this.addr = alloca ptr, align 8
  %flag.addr = alloca i8, align 1
  store ptr %this, ptr %this.addr, align 8
  %frombool = zext i1 %flag to i8
  store i8 %frombool, ptr %flag.addr, align 1
  %this1 = load ptr, ptr %this.addr, align 8
  %m_type = getelementptr inbounds %class.b2Body, ptr %this1, i32 0, i32 0
  %0 = load i32, ptr %m_type, align 8
  %cmp = icmp eq i32 %0, 0
  br i1 %cmp, label %if.then, label %if.end

if.then:                                          ; preds = %entry
  br label %if.end8

if.end:                                           ; preds = %entry
  %1 = load i8, ptr %flag.addr, align 1
  %tobool = trunc i8 %1 to i1
  br i1 %tobool, label %if.then2, label %if.else

if.then2:                                         ; preds = %if.end
  %m_flags = getelementptr inbounds %class.b2Body, ptr %this1, i32 0, i32 1
  %2 = load i16, ptr %m_flags, align 4
  %conv = zext i16 %2 to i32
  %or = or i32 %conv, 2
  %conv3 = trunc i32 %or to i16
  store i16 %conv3, ptr %m_flags, align 4
  %m_sleepTime = getelementptr inbounds %class.b2Body, ptr %this1, i32 0, i32 23
  store float 0.000000e+00, ptr %m_sleepTime, align 4
  br label %if.end8

if.else:                                          ; preds = %if.end
  %m_flags4 = getelementptr inbounds %class.b2Body, ptr %this1, i32 0, i32 1
  %3 = load i16, ptr %m_flags4, align 4
  %conv5 = zext i16 %3 to i32
  %and = and i32 %conv5, -3
  %conv6 = trunc i32 %and to i16
  store i16 %conv6, ptr %m_flags4, align 4
  %m_sleepTime7 = getelementptr inbounds %class.b2Body, ptr %this1, i32 0, i32 23
  store float 0.000000e+00, ptr %m_sleepTime7, align 4
  %m_linearVelocity = getelementptr inbounds %class.b2Body, ptr %this1, i32 0, i32 5
  call void @_ZN6b2Vec27SetZeroEv(ptr noundef nonnull align 4 dereferenceable(8) %m_linearVelocity)
  %m_angularVelocity = getelementptr inbounds %class.b2Body, ptr %this1, i32 0, i32 6
  store float 0.000000e+00, ptr %m_angularVelocity, align 8
  %m_force = getelementptr inbounds %class.b2Body, ptr %this1, i32 0, i32 7
  call void @_ZN6b2Vec27SetZeroEv(ptr noundef nonnull align 4 dereferenceable(8) %m_force)
  %m_torque = getelementptr inbounds %class.b2Body, ptr %this1, i32 0, i32 8
  store float 0.000000e+00, ptr %m_torque, align 4
  br label %if.end8

if.end8:                                          ; preds = %if.else, %if.then2, %if.then
  ret void
}

; Function Attrs: mustprogress nounwind uwtable
define linkonce_odr hidden noundef ptr @_ZN9b2Fixture7GetBodyEv(ptr noundef nonnull align 8 dereferenceable(80) %this) #1 comdat align 2 {
entry:
  %this.addr = alloca ptr, align 8
  store ptr %this, ptr %this.addr, align 8
  %this1 = load ptr, ptr %this.addr, align 8
  %m_body = getelementptr inbounds %class.b2Fixture, ptr %this1, i32 0, i32 2
  %0 = load ptr, ptr %m_body, align 8
  ret ptr %0
}

; Function Attrs: mustprogress nounwind uwtable
define linkonce_odr hidden noundef zeroext i1 @_ZNK9b2Fixture8IsSensorEv(ptr noundef nonnull align 8 dereferenceable(80) %this) #1 comdat align 2 {
entry:
  %this.addr = alloca ptr, align 8
  store ptr %this, ptr %this.addr, align 8
  %this1 = load ptr, ptr %this.addr, align 8
  %m_isSensor = getelementptr inbounds %class.b2Fixture, ptr %this1, i32 0, i32 10
  %0 = load i8, ptr %m_isSensor, align 2
  %tobool = trunc i8 %0 to i1
  ret i1 %tobool
}

; Function Attrs: mustprogress uwtable
define void @_ZN9b2Contact7DestroyEPS_P16b2BlockAllocator(ptr noundef %contact, ptr noundef %allocator) #0 align 2 {
entry:
  %contact.addr = alloca ptr, align 8
  %allocator.addr = alloca ptr, align 8
  %fixtureA = alloca ptr, align 8
  %fixtureB = alloca ptr, align 8
  %typeA = alloca i32, align 4
  %typeB = alloca i32, align 4
  %destroyFcn = alloca ptr, align 8
  store ptr %contact, ptr %contact.addr, align 8
  store ptr %allocator, ptr %allocator.addr, align 8
  %0 = load ptr, ptr %contact.addr, align 8
  %m_fixtureA = getelementptr inbounds %class.b2Contact, ptr %0, i32 0, i32 6
  %1 = load ptr, ptr %m_fixtureA, align 8
  store ptr %1, ptr %fixtureA, align 8
  %2 = load ptr, ptr %contact.addr, align 8
  %m_fixtureB = getelementptr inbounds %class.b2Contact, ptr %2, i32 0, i32 7
  %3 = load ptr, ptr %m_fixtureB, align 8
  store ptr %3, ptr %fixtureB, align 8
  %4 = load ptr, ptr %contact.addr, align 8
  %m_manifold = getelementptr inbounds %class.b2Contact, ptr %4, i32 0, i32 10
  %pointCount = getelementptr inbounds %struct.b2Manifold, ptr %m_manifold, i32 0, i32 4
  %5 = load i32, ptr %pointCount, align 4
  %cmp = icmp sgt i32 %5, 0
  br i1 %cmp, label %land.lhs.true, label %if.end

land.lhs.true:                                    ; preds = %entry
  %6 = load ptr, ptr %fixtureA, align 8
  %call = call noundef zeroext i1 @_ZNK9b2Fixture8IsSensorEv(ptr noundef nonnull align 8 dereferenceable(80) %6)
  %conv = zext i1 %call to i32
  %cmp1 = icmp eq i32 %conv, 0
  br i1 %cmp1, label %land.lhs.true2, label %if.end

land.lhs.true2:                                   ; preds = %land.lhs.true
  %7 = load ptr, ptr %fixtureB, align 8
  %call3 = call noundef zeroext i1 @_ZNK9b2Fixture8IsSensorEv(ptr noundef nonnull align 8 dereferenceable(80) %7)
  %conv4 = zext i1 %call3 to i32
  %cmp5 = icmp eq i32 %conv4, 0
  br i1 %cmp5, label %if.then, label %if.end

if.then:                                          ; preds = %land.lhs.true2
  %8 = load ptr, ptr %fixtureA, align 8
  %call6 = call noundef ptr @_ZN9b2Fixture7GetBodyEv(ptr noundef nonnull align 8 dereferenceable(80) %8)
  call void @_ZN6b2Body8SetAwakeEb(ptr noundef nonnull align 8 dereferenceable(184) %call6, i1 noundef zeroext true)
  %9 = load ptr, ptr %fixtureB, align 8
  %call7 = call noundef ptr @_ZN9b2Fixture7GetBodyEv(ptr noundef nonnull align 8 dereferenceable(80) %9)
  call void @_ZN6b2Body8SetAwakeEb(ptr noundef nonnull align 8 dereferenceable(184) %call7, i1 noundef zeroext true)
  br label %if.end

if.end:                                           ; preds = %if.then, %land.lhs.true2, %land.lhs.true, %entry
  %10 = load ptr, ptr %fixtureA, align 8
  %call8 = call noundef i32 @_ZNK9b2Fixture7GetTypeEv(ptr noundef nonnull align 8 dereferenceable(80) %10)
  store i32 %call8, ptr %typeA, align 4
  %11 = load ptr, ptr %fixtureB, align 8
  %call9 = call noundef i32 @_ZNK9b2Fixture7GetTypeEv(ptr noundef nonnull align 8 dereferenceable(80) %11)
  store i32 %call9, ptr %typeB, align 4
  %12 = load i32, ptr %typeA, align 4
  %idxprom = zext i32 %12 to i64
  %arrayidx = getelementptr inbounds [4 x [4 x %struct.b2ContactRegister]], ptr @_ZN9b2Contact11s_registersE, i64 0, i64 %idxprom
  %13 = load i32, ptr %typeB, align 4
  %idxprom10 = zext i32 %13 to i64
  %arrayidx11 = getelementptr inbounds [4 x %struct.b2ContactRegister], ptr %arrayidx, i64 0, i64 %idxprom10
  %destroyFcn12 = getelementptr inbounds %struct.b2ContactRegister, ptr %arrayidx11, i32 0, i32 1
  %14 = load ptr, ptr %destroyFcn12, align 8
  store ptr %14, ptr %destroyFcn, align 8
  %15 = load ptr, ptr %destroyFcn, align 8
  %16 = load ptr, ptr %contact.addr, align 8
  %17 = load ptr, ptr %allocator.addr, align 8
  call void %15(ptr noundef %16, ptr noundef %17)
  ret void
}