; Function Attrs: mustprogress uwtable
define void @_ZN9b2Contact7DestroyEPS_P16b2BlockAllocator(ptr noundef %contact, ptr noundef %allocator) local_unnamed_addr #2 align 2 {
entry:
  %m_fixtureA = getelementptr inbounds i8, ptr %contact, i64 96
  %0 = load ptr, ptr %m_fixtureA, align 8
  %m_fixtureB = getelementptr inbounds i8, ptr %contact, i64 104
  %1 = load ptr, ptr %m_fixtureB, align 8
  %pointCount = getelementptr inbounds i8, ptr %contact, i64 180
  %2 = load i32, ptr %pointCount, align 4
  %cmp = icmp sgt i32 %2, 0
  br i1 %cmp, label %land.lhs.true, label %if.end

land.lhs.true:                                    ; preds = %entry
  %m_isSensor.i = getelementptr inbounds i8, ptr %0, i64 66
  %3 = load i8, ptr %m_isSensor.i, align 2
  %4 = and i8 %3, 1
  %tobool.i.not = icmp eq i8 %4, 0
  br i1 %tobool.i.not, label %land.lhs.true2, label %if.end

land.lhs.true2:                                   ; preds = %land.lhs.true
  %m_isSensor.i8 = getelementptr inbounds i8, ptr %1, i64 66
  %5 = load i8, ptr %m_isSensor.i8, align 2
  %6 = and i8 %5, 1
  %tobool.i9.not = icmp eq i8 %6, 0
  br i1 %tobool.i9.not, label %if.then, label %if.end

if.then:                                          ; preds = %land.lhs.true2
  %m_body.i = getelementptr inbounds i8, ptr %0, i64 16
  %7 = load ptr, ptr %m_body.i, align 8
  %8 = load i32, ptr %7, align 8
  %cmp.i = icmp eq i32 %8, 0
  br i1 %cmp.i, label %_ZN6b2Body8SetAwakeEb.exit, label %if.end.i

if.end.i:                                         ; preds = %if.then
  %m_flags.i = getelementptr inbounds i8, ptr %7, i64 4
  %9 = load i16, ptr %m_flags.i, align 4
  %m_sleepTime.i = getelementptr inbounds i8, ptr %7, i64 172
  %10 = or i16 %9, 2
  store i16 %10, ptr %m_flags.i, align 4
  store float 0.000000e+00, ptr %m_sleepTime.i, align 4
  br label %_ZN6b2Body8SetAwakeEb.exit

_ZN6b2Body8SetAwakeEb.exit:                       ; preds = %if.then, %if.end.i
  %m_body.i10 = getelementptr inbounds i8, ptr %1, i64 16
  %11 = load ptr, ptr %m_body.i10, align 8
  %12 = load i32, ptr %11, align 8
  %cmp.i11 = icmp eq i32 %12, 0
  br i1 %cmp.i11, label %if.end, label %if.end.i12

if.end.i12:                                       ; preds = %_ZN6b2Body8SetAwakeEb.exit
  %m_flags.i13 = getelementptr inbounds i8, ptr %11, i64 4
  %13 = load i16, ptr %m_flags.i13, align 4
  %m_sleepTime.i14 = getelementptr inbounds i8, ptr %11, i64 172
  %14 = or i16 %13, 2
  store i16 %14, ptr %m_flags.i13, align 4
  store float 0.000000e+00, ptr %m_sleepTime.i14, align 4
  br label %if.end

if.end:                                           ; preds = %if.end.i12, %_ZN6b2Body8SetAwakeEb.exit, %land.lhs.true2, %land.lhs.true, %entry
  %m_shape.i = getelementptr inbounds i8, ptr %0, i64 24
  %15 = load ptr, ptr %m_shape.i, align 8
  %m_type.i.i = getelementptr inbounds i8, ptr %15, i64 8
  %16 = load i32, ptr %m_type.i.i, align 8
  %m_shape.i16 = getelementptr inbounds i8, ptr %1, i64 24
  %17 = load ptr, ptr %m_shape.i16, align 8
  %m_type.i.i17 = getelementptr inbounds i8, ptr %17, i64 8
  %18 = load i32, ptr %m_type.i.i17, align 8
  %idxprom = zext i32 %16 to i64
  %idxprom10 = zext i32 %18 to i64
  %destroyFcn12 = getelementptr inbounds [4 x [4 x %struct.b2ContactRegister]], ptr @_ZN9b2Contact11s_registersE, i64 0, i64 %idxprom, i64 %idxprom10, i32 1
  %19 = load ptr, ptr %destroyFcn12, align 8
  tail call void %19(ptr noundef nonnull %contact, ptr noundef %allocator)
  ret void
}